; Function Attrs: nounwind uwtable
define dso_local void @toast_delete_external(ptr noundef %0, ptr noundef readonly captures(none) %1, ptr noundef readonly captures(none) %2, i1 noundef zeroext %3) local_unnamed_addr #0 {
  %5 = getelementptr inbounds nuw i8, ptr %0, i64 64
  %6 = load ptr, ptr %5, align 8
  %7 = load i32, ptr %6, align 8
  %8 = icmp sgt i32 %7, 0
  br i1 %8, label %.lr.ph, label %._crit_edge

.lr.ph:                                           ; preds = %4
  %9 = getelementptr i8, ptr %6, i64 28
  %wide.trip.count = zext nneg i32 %7 to i64
  br label %10

10:                                               ; preds = %.lr.ph, %29
  %indvars.iv = phi i64 [ 0, %.lr.ph ], [ %indvars.iv.next, %29 ]
  %.idx = shl nuw nsw i64 %indvars.iv, 4
  %11 = getelementptr i8, ptr %9, i64 %.idx
  %12 = load i16, ptr %11, align 4
  %13 = icmp eq i16 %12, -1
  br i1 %13, label %14, label %29

14:                                               ; preds = %10
  %15 = getelementptr inbounds nuw i64, ptr %1, i64 %indvars.iv
  %16 = load i64, ptr %15, align 8
  %17 = getelementptr inbounds nuw i8, ptr %2, i64 %indvars.iv
  %18 = load i8, ptr %17, align 1, !range !4, !noundef !5
  %19 = trunc nuw i8 %18 to i1
  br i1 %19, label %29, label %20

20:                                               ; preds = %14
  %21 = inttoptr i64 %16 to ptr
  %22 = load i8, ptr %21, align 1
  %23 = icmp eq i8 %22, 1
  br i1 %23, label %24, label %29

24:                                               ; preds = %20
  %25 = getelementptr inbounds nuw i8, ptr %21, i64 1
  %26 = load i8, ptr %25, align 1
  %27 = icmp eq i8 %26, 18
  br i1 %27, label %28, label %29

28:                                               ; preds = %24
  tail call void @toast_delete_datum(ptr noundef %0, i64 noundef %16, i1 noundef zeroext %3) #5
  br label %29

29:                                               ; preds = %14, %20, %24, %28, %10
  %indvars.iv.next = add nuw nsw i64 %indvars.iv, 1
  %exitcond.not = icmp eq i64 %indvars.iv.next, %wide.trip.count
  br i1 %exitcond.not, label %._crit_edge, label %10, !llvm.loop !11

._crit_edge:                                      ; preds = %29, %4
  ret void
}